(lp0
(I11215
I4
tp1
a(I11216
I2
tp2
a(I2031
F0.64
tp3
a(I2007
I1
tp4
a(I9078
I42
tp5
a(I12220
I30
tp6
a(I9286
I40
tp7
a(I2036
I3
tp8
a(I2043
I3
tp9
a(I11282
I75
tp10
a(I11297
I5
tp11
a(I20038
I90
tp12
a(I4531
I75
tp13
a(I12061
I15
tp14
a(I4582
I30
tp15
a.