(lp0
(I12078
F5.0
tp1
a(I2007
F1.0
tp2
a(I12220
F9.999999999999998
tp3
a(I42231
cnumpy.core.multiarray
scalar
p4
(cnumpy
dtype
p5
(S'f8'
p6
I0
I1
tp7
Rp8
(I3
S'<'
p9
NNNI-1
I-1
I0
tp10
bS'\x1b\x0b\x00\x00\x00\x00\x10@'
p11
tp12
Rp13
tp14
a(I2036
F3.0
tp15
a(I11215
F4.0
tp16
a(I2031
F0.64
tp17
a(I2043
F3.0
tp18
a(I11282
F75.0
tp19
a(I11216
F2.0
tp20
a(I11508
F60.00000000000002
tp21
a(I11233
F89.99999999999994
tp22
a(I11457
F135.0
tp23
a(I16144
F30.000000000000014
tp24
a(I20038
F55.00000000000001
tp25
a(I4589
F5.999999999999999
tp26
a(I2003
F14.000000000000002
tp27
a(I11266
F100.0
tp28
a(I12061
F15.0
tp29
a(I2047
g4
(g8
S'\xeb\xcb\x14\xb4\xd3\x0c\x11@'
p30
tp31
Rp32
tp33
a(I11955
F44.99999999999999
tp34
a(I20137
F100.0
tp35
a(I12033
F40.0
tp36
a(I11297
F5.0
tp37
a(I4038
F15.0
tp38
a(I2
g4
(g8
S'\xd6V\x07\xb7\x96(\xe7>'
p39
tp40
Rp41
tp42
a(I1
F13.999999999999998
tp43
a.