(lp0
(I11591
cnumpy.core.multiarray
scalar
p1
(cnumpy
dtype
p2
(S'f8'
p3
I0
I1
tp4
Rp5
(I3
S'<'
p6
NNNI-1
I-1
I0
tp7
bS'q\x97\x9b\x0fHSW@'
p8
tp9
Rp10
tp11
a(I11257
g1
(g5
S'\xcc\xd3\xb2\xe0"\x85@@'
p12
tp13
Rp14
tp15
a(I12061
F15.0
tp16
a(I11266
g1
(g5
S'\x13\xf7\xd9\xb3\x0f<s@'
p17
tp18
Rp19
tp20
a(I9078
F42.0
tp21
a(I2043
F3.0
tp22
a(I9286
F40.0
tp23
a(I9002
g1
(g5
S'_,\x87\x7f3\x956@'
p24
tp25
Rp26
tp27
a(I4531
F75.0
tp28
a(I11215
F4.0
tp29
a(I11993
g1
(g5
S'\x89\xd4\x1b\xcf1UV@'
p30
tp31
Rp32
tp33
a(I2031
F0.64
tp34
a(I11216
F2.0
tp35
a(I2047
g1
(g5
S'\x9f%\x87\xd8\r\x89\x13@'
p36
tp37
Rp38
tp39
a(I12220
F30.0
tp40
a(I1118
g1
(g5
S'\xf4q\nAy\xbei@'
p41
tp42
Rp43
tp44
a(I1154
g1
(g5
S"z\x87\x05\xb4\xe1\x93'@"
p45
tp46
Rp47
tp48
a(I11274
g1
(g5
S'\x97pwF\x0e\xb3j@'
p49
tp50
Rp51
tp52
a(I20038
F90.0
tp53
a(I4582
F30.0
tp54
a(I2007
F1.0
tp55
a(I2036
F3.0
tp56
a(I11282
F75.0
tp57
a(I11297
F5.0
tp58
a(I11026
g1
(g5
S'\xfd\x05y\xe1\x1f\x1a\t@'
p59
tp60
Rp61
tp62
a.