(lp0
(I12078
F5.0
tp1
a(I20137
F100.0
tp2
a(I42231
cnumpy.core.multiarray
scalar
p3
(cnumpy
dtype
p4
(S'f8'
p5
I0
I1
tp6
Rp7
(I3
S'<'
p8
NNNI-1
I-1
I0
tp9
bS'\x1b\x0b\x00\x00\x00\x00\x10@'
p10
tp11
Rp12
tp13
a(I2047
g3
(g7
S'\xeb\xcb\x14\xb4\xd3\x0c\x11@'
p14
tp15
Rp16
tp17
a(I2003
F14.000000000000002
tp18
a(I11297
F5.0
tp19
a(I12220
F30.0
tp20
a(I12039
F40.0
tp21
a(I11282
F75.0
tp22
a(I4589
F5.999999999999999
tp23
a(I16091
F75.0
tp24
a(I11215
F4.0
tp25
a(I11266
F100.0
tp26
a(I11233
F89.99999999999994
tp27
a(I1
F13.999999999999998
tp28
a(I2036
F3.0
tp29
a(I11508
F60.00000000000002
tp30
a(I12061
F20.0
tp31
a(I11216
F2.0
tp32
a(I11457
F135.0
tp33
a(I2031
F0.64
tp34
a(I2043
F3.0
tp35
a(I11270
F50.0
tp36
a(I2007
F1.0
tp37
a(I20038
F55.00000000000001
tp38
a(I11147
F50.0
tp39
a(I2
g3
(g7
S'\xd6V\x07\xb7\x96(\xe7>'
p40
tp41
Rp42
tp43
a(I16144
F30.000000000000014
tp44
a.