(lp0
(I11190
cnumpy.core.multiarray
scalar
p1
(cnumpy
dtype
p2
(S'f8'
p3
I0
I1
tp4
Rp5
(I3
S'<'
p6
NNNI-1
I-1
I0
tp7
bS'\xea\xef\xfb\xda\xa3\xf1\x04@'
p8
tp9
Rp10
tp11
a(I9286
F0.4
tp12
a(I11117
g1
(g5
S'n\xb3\x7f/\tv\xd0?'
p13
tp14
Rp15
tp16
a(I42231
g1
(g5
S'\xff\xa8d\xd2\x0c\xb1X?'
p17
tp18
Rp19
tp20
a(I9078
F0.42
tp21
a(I1124
g1
(g5
S'\x1a\x1a\x9b?\xa6\x9f\xc5?'
p22
tp23
Rp24
tp25
a(I9002
g1
(g5
S'\xd1\xd6\x85\x80\t\xf1\xd0?'
p26
tp27
Rp28
tp29
a(I12220
F0.3
tp30
a(I11266
g1
(g5
S'`n\xf8:L[\x04@'
p31
tp32
Rp33
tp34
a(I11282
F0.75
tp35
a(I2043
F0.03
tp36
a(I2031
F0.0064
tp37
a(I11297
g1
(g5
S'\x86\x81\xa3\x17o\xeb\xbf?'
p38
tp39
Rp40
tp41
a(I11993
g1
(g5
S'D\xf4=\x8c\xe1|\xf3?'
p42
tp43
Rp44
tp45
a(I2007
F0.01
tp46
a(I11591
g1
(g5
S'\x18\x94\xb9\xf5z\xcd\xdb?'
p47
tp48
Rp49
tp50
a(I2047
g1
(g5
S'\xd6\x04\xa92\xf3=\xa9?'
p51
tp52
Rp53
tp54
a(I4038
F0.035
tp55
a(I11274
g1
(g5
S'\x03\x83<\xe0\xa2\xc2\xf5?'
p56
tp57
Rp58
tp59
a(I4670
g1
(g5
S'\x80\xd0\x02\xeb\n\xd9\xcd?'
p60
tp61
Rp62
tp63
a(I43285
g1
(g5
S',\x9e\xff\x07W*\x89?'
p64
tp65
Rp66
tp67
a(I4531
F0.75
tp68
a(I2036
F0.03
tp69
a(I20038
F0.9
tp70
a(I1118
g1
(g5
S']\xc5w\x14\x02\x9f\x04@'
p71
tp72
Rp73
tp74
a(I11215
F0.04
tp75
a(I11216
F0.02
tp76
a.