(lp0
(I12033
F40.0
tp1
a(I16144
F30.000000000000014
tp2
a(I20038
F55.00000000000001
tp3
a(I9078
F42.0
tp4
a(I11266
F100.0
tp5
a(I4038
F15.0
tp6
a(I2007
F1.0
tp7
a(I11282
F75.0
tp8
a(I4589
F5.999999999999999
tp9
a(I2036
F3.0
tp10
a(I1
F13.999999999999998
tp11
a(I20137
F100.0
tp12
a(I11297
F5.0
tp13
a(I2031
F0.64
tp14
a(I42231
cnumpy.core.multiarray
scalar
p15
(cnumpy
dtype
p16
(S'f8'
p17
I0
I1
tp18
Rp19
(I3
S'<'
p20
NNNI-1
I-1
I0
tp21
bS'\x1b\x0b\x00\x00\x00\x00\x10@'
p22
tp23
Rp24
tp25
a(I2
g15
(g19
S'\xd6V\x07\xb7\x96(\xe7>'
p26
tp27
Rp28
tp29
a(I2047
g15
(g19
S'\xeb\xcb\x14\xb4\xd3\x0c\x11@'
p30
tp31
Rp32
tp33
a(I12078
F5.0
tp34
a(I11955
F44.99999999999999
tp35
a(I11508
F60.00000000000002
tp36
a(I2003
F14.000000000000002
tp37
a(I12220
F9.999999999999998
tp38
a(I2043
F3.0
tp39
a(I9286
F40.0
tp40
a(I11215
F4.0
tp41
a(I12061
F15.0
tp42
a(I11233
F89.99999999999994
tp43
a(I11216
F2.0
tp44
a(I11457
F135.0
tp45
a.